target datalayout = "e-m:e-p270:32:32-p271:32:32-p272:64:64-i64:64-i128:128-f80:128-n8:16:32:64-S128"
target triple = "x86_64-pc-linux-gnu"

%struct.DdNode = type { i32, i32, ptr, %union.anon, i64 }
%union.anon = type { %struct.DdChildren }
%struct.DdChildren = type { ptr, ptr }

@.str.18 = private unnamed_addr constant [17 x i8] c".names %s%lx %s\0A\00", align 1
@.str.19 = private unnamed_addr constant [6 x i8] c"%s 1\0A\00", align 1
@.str.20 = private unnamed_addr constant [2 x i8] c"0\00", align 1
@.str.21 = private unnamed_addr constant [2 x i8] c"1\00", align 1
@.str.22 = private unnamed_addr constant [14 x i8] c".names %s%lx\0A\00", align 1
@.str.23 = private unnamed_addr constant [5 x i8] c" %s\0A\00", align 1
@.str.24 = private unnamed_addr constant [29 x i8] c".names %s %s%lx %s%lx %s%lx\0A\00", align 1
@.str.25 = private unnamed_addr constant [7 x i8] c"01- 1\0A\00", align 1
@.str.26 = private unnamed_addr constant [7 x i8] c"1-1 1\0A\00", align 1
@.str.27 = private unnamed_addr constant [31 x i8] c".names %s %s%lx_i %s%lx %s%lx\0A\00", align 1
@.str.28 = private unnamed_addr constant [22 x i8] c".names %s%lx %s%lx_i\0A\00", align 1
@.str.29 = private unnamed_addr constant [5 x i8] c"0 1\0A\00", align 1

; Function Attrs: nounwind uwtable
define void @WriteDDintoBLIFfile(ptr noundef %0, ptr noundef %1, ptr noundef %2, ptr noundef %3, ptr noundef %4) #0 {
  %6 = alloca ptr, align 8
  %7 = alloca ptr, align 8
  %8 = alloca ptr, align 8
  %9 = alloca ptr, align 8
  %10 = alloca ptr, align 8
  %11 = alloca i32, align 4
  %12 = alloca ptr, align 8
  %13 = alloca ptr, align 8
  %14 = alloca i64, align 8
  %15 = alloca i64, align 8
  %16 = alloca i64, align 8
  %17 = alloca ptr, align 8
  %18 = alloca ptr, align 8
  %19 = alloca ptr, align 8
  %20 = alloca ptr, align 8
  %21 = alloca ptr, align 8
  %22 = alloca i32, align 4
  store ptr %0, ptr %6, align 8, !tbaa !41
  store ptr %1, ptr %7, align 8, !tbaa !14
  store ptr %2, ptr %8, align 8, !tbaa !3
  store ptr %3, ptr %9, align 8, !tbaa !3
  store ptr %4, ptr %10, align 8, !tbaa !39
  call void @llvm.lifetime.start.p0(i64 4, ptr %11) #5
  call void @llvm.lifetime.start.p0(i64 8, ptr %12) #5
  call void @llvm.lifetime.start.p0(i64 8, ptr %13) #5
  store ptr null, ptr %13, align 8, !tbaa !59
  call void @llvm.lifetime.start.p0(i64 8, ptr %14) #5
  call void @llvm.lifetime.start.p0(i64 8, ptr %15) #5
  call void @llvm.lifetime.start.p0(i64 8, ptr %16) #5
  call void @llvm.lifetime.start.p0(i64 8, ptr %17) #5
  call void @llvm.lifetime.start.p0(i64 8, ptr %18) #5
  call void @llvm.lifetime.start.p0(i64 8, ptr %19) #5
  call void @llvm.lifetime.start.p0(i64 8, ptr %20) #5
  %23 = call ptr @st__init_table(ptr noundef @st__ptrcmp, ptr noundef @st__ptrhash)
  store ptr %23, ptr %12, align 8, !tbaa !61
  %24 = load ptr, ptr %7, align 8, !tbaa !14
  %25 = ptrtoint ptr %24 to i64
  %26 = and i64 %25, -2
  %27 = inttoptr i64 %26 to ptr
  %28 = load ptr, ptr %12, align 8, !tbaa !61
  %29 = call i32 @cuddCollectNodes(ptr noundef %27, ptr noundef %28)
  %30 = load ptr, ptr %7, align 8, !tbaa !14
  %31 = ptrtoint ptr %30 to i64
  %32 = and i64 %31, -2
  %33 = inttoptr i64 %32 to ptr
  %34 = ptrtoint ptr %33 to i64
  store i64 %34, ptr %14, align 8, !tbaa !20
  store i64 0, ptr %15, align 8, !tbaa !20
  %35 = load ptr, ptr %12, align 8, !tbaa !61
  %36 = call ptr @st__init_gen(ptr noundef %35)
  store ptr %36, ptr %13, align 8, !tbaa !59
  br label %37

37:                                               ; preds = %41, %5
  %38 = load ptr, ptr %13, align 8, !tbaa !59
  %39 = call i32 @st__gen(ptr noundef %38, ptr noundef %17, ptr noundef null)
  %40 = icmp ne i32 %39, 0
  br i1 %40, label %41, label %48

41:                                               ; preds = %37
  %42 = load i64, ptr %14, align 8, !tbaa !20
  %43 = load ptr, ptr %17, align 8, !tbaa !14
  %44 = ptrtoint ptr %43 to i64
  %45 = xor i64 %42, %44
  %46 = load i64, ptr %15, align 8, !tbaa !20
  %47 = or i64 %46, %45
  store i64 %47, ptr %15, align 8, !tbaa !20
  br label %37, !llvm.loop !63

48:                                               ; preds = %37
  %49 = load ptr, ptr %13, align 8, !tbaa !59
  call void @st__free_gen(ptr noundef %49)
  store ptr null, ptr %13, align 8, !tbaa !59
  store i32 0, ptr %11, align 4, !tbaa !12
  br label %50

50:                                               ; preds = %64, %48
  %51 = load i32, ptr %11, align 4, !tbaa !12
  %52 = zext i32 %51 to i64
  %53 = icmp ult i64 %52, 64
  br i1 %53, label %54, label %67

54:                                               ; preds = %50
  %55 = load i32, ptr %11, align 4, !tbaa !12
  %56 = shl i32 1, %55
  %57 = sub nsw i32 %56, 1
  %58 = sext i32 %57 to i64
  store i64 %58, ptr %16, align 8, !tbaa !20
  %59 = load i64, ptr %15, align 8, !tbaa !20
  %60 = load i64, ptr %16, align 8, !tbaa !20
  %61 = icmp sle i64 %59, %60
  br i1 %61, label %62, label %63

62:                                               ; preds = %54
  br label %67

63:                                               ; preds = %54
  br label %64

64:                                               ; preds = %63
  %65 = load i32, ptr %11, align 4, !tbaa !12
  %66 = add nsw i32 %65, 4
  store i32 %66, ptr %11, align 4, !tbaa !12
  br label %50, !llvm.loop !64

67:                                               ; preds = %62, %50
  %68 = load ptr, ptr %6, align 8, !tbaa !41
  %69 = load ptr, ptr %9, align 8, !tbaa !3
  %70 = load i64, ptr %16, align 8, !tbaa !20
  %71 = load ptr, ptr %7, align 8, !tbaa !14
  %72 = ptrtoint ptr %71 to i64
  %73 = and i64 %72, -2
  %74 = inttoptr i64 %73 to ptr
  %75 = ptrtoint ptr %74 to i64
  %76 = and i64 %70, %75
  %77 = udiv i64 %76, 40
  %78 = load ptr, ptr %8, align 8, !tbaa !3
  %79 = call i32 (ptr, ptr, ...) @fprintf(ptr noundef %68, ptr noundef @.str.18, ptr noundef %69, i64 noundef %77, ptr noundef %78) #5
  %80 = load ptr, ptr %6, align 8, !tbaa !41
  %81 = load ptr, ptr %7, align 8, !tbaa !14
  %82 = ptrtoint ptr %81 to i64
  %83 = and i64 %82, 1
  %84 = trunc i64 %83 to i32
  %85 = icmp ne i32 %84, 0
  %86 = select i1 %85, ptr @.str.20, ptr @.str.21
  %87 = call i32 (ptr, ptr, ...) @fprintf(ptr noundef %80, ptr noundef @.str.19, ptr noundef %86) #5
  %88 = load ptr, ptr %12, align 8, !tbaa !61
  %89 = call ptr @st__init_gen(ptr noundef %88)
  store ptr %89, ptr %13, align 8, !tbaa !59
  br label %90

90:                                               ; preds = %226, %223, %99, %67
  %91 = load ptr, ptr %13, align 8, !tbaa !59
  %92 = call i32 @st__gen(ptr noundef %91, ptr noundef %17, ptr noundef null)
  %93 = icmp ne i32 %92, 0
  br i1 %93, label %94, label %227

94:                                               ; preds = %90
  %95 = load ptr, ptr %17, align 8, !tbaa !14
  %96 = getelementptr inbounds nuw %struct.DdNode, ptr %95, i32 0, i32 0
  %97 = load i32, ptr %96, align 8, !tbaa !44
  %98 = icmp eq i32 %97, 2147483647
  br i1 %98, label %99, label %115

99:                                               ; preds = %94
  %100 = load ptr, ptr %6, align 8, !tbaa !41
  %101 = load ptr, ptr %9, align 8, !tbaa !3
  %102 = load i64, ptr %16, align 8, !tbaa !20
  %103 = load ptr, ptr %17, align 8, !tbaa !14
  %104 = ptrtoint ptr %103 to i64
  %105 = and i64 %102, %104
  %106 = udiv i64 %105, 40
  %107 = call i32 (ptr, ptr, ...) @fprintf(ptr noundef %100, ptr noundef @.str.22, ptr noundef %101, i64 noundef %106) #5
  %108 = load ptr, ptr %6, align 8, !tbaa !41
  %109 = load ptr, ptr %17, align 8, !tbaa !14
  %110 = getelementptr inbounds nuw %struct.DdNode, ptr %109, i32 0, i32 3
  %111 = load double, ptr %110, align 8, !tbaa !45
  %112 = fcmp oeq double %111, 0.000000e+00
  %113 = select i1 %112, ptr @.str.20, ptr @.str.21
  %114 = call i32 (ptr, ptr, ...) @fprintf(ptr noundef %108, ptr noundef @.str.23, ptr noundef %113) #5
  br label %90, !llvm.loop !65

115:                                              ; preds = %94
  %116 = load ptr, ptr %17, align 8, !tbaa !14
  %117 = getelementptr inbounds nuw %struct.DdNode, ptr %116, i32 0, i32 3
  %118 = getelementptr inbounds nuw %struct.DdChildren, ptr %117, i32 0, i32 1
  %119 = load ptr, ptr %118, align 8, !tbaa !45
  store ptr %119, ptr %18, align 8, !tbaa !14
  %120 = load ptr, ptr %18, align 8, !tbaa !14
  %121 = ptrtoint ptr %120 to i64
  %122 = and i64 %121, -2
  %123 = inttoptr i64 %122 to ptr
  store ptr %123, ptr %19, align 8, !tbaa !14
  %124 = load ptr, ptr %17, align 8, !tbaa !14
  %125 = getelementptr inbounds nuw %struct.DdNode, ptr %124, i32 0, i32 3
  %126 = getelementptr inbounds nuw %struct.DdChildren, ptr %125, i32 0, i32 0
  %127 = load ptr, ptr %126, align 8, !tbaa !45
  store ptr %127, ptr %20, align 8, !tbaa !14
  %128 = load ptr, ptr %18, align 8, !tbaa !14
  %129 = load ptr, ptr %19, align 8, !tbaa !14
  %130 = icmp eq ptr %128, %129
  br i1 %130, label %131, label %163

131:                                              ; preds = %115
  %132 = load ptr, ptr %6, align 8, !tbaa !41
  %133 = load ptr, ptr %10, align 8, !tbaa !39
  %134 = load ptr, ptr %17, align 8, !tbaa !14
  %135 = getelementptr inbounds nuw %struct.DdNode, ptr %134, i32 0, i32 0
  %136 = load i32, ptr %135, align 8, !tbaa !44
  %137 = zext i32 %136 to i64
  %138 = getelementptr inbounds nuw ptr, ptr %133, i64 %137
  %139 = load ptr, ptr %138, align 8, !tbaa !3
  %140 = load ptr, ptr %9, align 8, !tbaa !3
  %141 = load i64, ptr %16, align 8, !tbaa !20
  %142 = load ptr, ptr %19, align 8, !tbaa !14
  %143 = ptrtoint ptr %142 to i64
  %144 = and i64 %141, %143
  %145 = udiv i64 %144, 40
  %146 = load ptr, ptr %9, align 8, !tbaa !3
  %147 = load i64, ptr %16, align 8, !tbaa !20
  %148 = load ptr, ptr %20, align 8, !tbaa !14
  %149 = ptrtoint ptr %148 to i64
  %150 = and i64 %147, %149
  %151 = udiv i64 %150, 40
  %152 = load ptr, ptr %9, align 8, !tbaa !3
  %153 = load i64, ptr %16, align 8, !tbaa !20
  %154 = load ptr, ptr %17, align 8, !tbaa !14
  %155 = ptrtoint ptr %154 to i64
  %156 = and i64 %153, %155
  %157 = udiv i64 %156, 40
  %158 = call i32 (ptr, ptr, ...) @fprintf(ptr noundef %132, ptr noundef @.str.24, ptr noundef %139, ptr noundef %140, i64 noundef %145, ptr noundef %146, i64 noundef %151, ptr noundef %152, i64 noundef %157) #5
  %159 = load ptr, ptr %6, align 8, !tbaa !41
  %160 = call i32 (ptr, ptr, ...) @fprintf(ptr noundef %159, ptr noundef @.str.25) #5
  %161 = load ptr, ptr %6, align 8, !tbaa !41
  %162 = call i32 (ptr, ptr, ...) @fprintf(ptr noundef %161, ptr noundef @.str.26) #5
  br label %226

163:                                              ; preds = %115
  call void @llvm.lifetime.start.p0(i64 8, ptr %21) #5
  %164 = load ptr, ptr %6, align 8, !tbaa !41
  %165 = load ptr, ptr %10, align 8, !tbaa !39
  %166 = load ptr, ptr %17, align 8, !tbaa !14
  %167 = getelementptr inbounds nuw %struct.DdNode, ptr %166, i32 0, i32 0
  %168 = load i32, ptr %167, align 8, !tbaa !44
  %169 = zext i32 %168 to i64
  %170 = getelementptr inbounds nuw ptr, ptr %165, i64 %169
  %171 = load ptr, ptr %170, align 8, !tbaa !3
  %172 = load ptr, ptr %9, align 8, !tbaa !3
  %173 = load i64, ptr %16, align 8, !tbaa !20
  %174 = load ptr, ptr %19, align 8, !tbaa !14
  %175 = ptrtoint ptr %174 to i64
  %176 = and i64 %173, %175
  %177 = udiv i64 %176, 40
  %178 = load ptr, ptr %9, align 8, !tbaa !3
  %179 = load i64, ptr %16, align 8, !tbaa !20
  %180 = load ptr, ptr %20, align 8, !tbaa !14
  %181 = ptrtoint ptr %180 to i64
  %182 = and i64 %179, %181
  %183 = udiv i64 %182, 40
  %184 = load ptr, ptr %9, align 8, !tbaa !3
  %185 = load i64, ptr %16, align 8, !tbaa !20
  %186 = load ptr, ptr %17, align 8, !tbaa !14
  %187 = ptrtoint ptr %186 to i64
  %188 = and i64 %185, %187
  %189 = udiv i64 %188, 40
  %190 = call i32 (ptr, ptr, ...) @fprintf(ptr noundef %164, ptr noundef @.str.27, ptr noundef %171, ptr noundef %172, i64 noundef %177, ptr noundef %178, i64 noundef %183, ptr noundef %184, i64 noundef %189) #5
  %191 = load ptr, ptr %6, align 8, !tbaa !41
  %192 = call i32 (ptr, ptr, ...) @fprintf(ptr noundef %191, ptr noundef @.str.25) #5
  %193 = load ptr, ptr %6, align 8, !tbaa !41
  %194 = call i32 (ptr, ptr, ...) @fprintf(ptr noundef %193, ptr noundef @.str.26) #5
  %195 = load ptr, ptr %12, align 8, !tbaa !61
  %196 = load ptr, ptr %19, align 8, !tbaa !14
  %197 = call i32 @st__find(ptr noundef %195, ptr noundef %196, ptr noundef %21)
  %198 = icmp ne i32 %197, 0
  br i1 %198, label %200, label %199

199:                                              ; preds = %163
  br label %200

200:                                              ; preds = %199, %163
  %201 = load ptr, ptr %21, align 8, !tbaa !43
  %202 = load i32, ptr %201, align 4, !tbaa !12
  %203 = icmp ne i32 %202, 0
  br i1 %203, label %204, label %205

204:                                              ; preds = %200
  store i32 7, ptr %22, align 4
  br label %223, !llvm.loop !65

205:                                              ; preds = %200
  %206 = load ptr, ptr %21, align 8, !tbaa !43
  store i32 1, ptr %206, align 4, !tbaa !12
  %207 = load ptr, ptr %6, align 8, !tbaa !41
  %208 = load ptr, ptr %9, align 8, !tbaa !3
  %209 = load i64, ptr %16, align 8, !tbaa !20
  %210 = load ptr, ptr %19, align 8, !tbaa !14
  %211 = ptrtoint ptr %210 to i64
  %212 = and i64 %209, %211
  %213 = udiv i64 %212, 40
  %214 = load ptr, ptr %9, align 8, !tbaa !3
  %215 = load i64, ptr %16, align 8, !tbaa !20
  %216 = load ptr, ptr %19, align 8, !tbaa !14
  %217 = ptrtoint ptr %216 to i64
  %218 = and i64 %215, %217
  %219 = udiv i64 %218, 40
  %220 = call i32 (ptr, ptr, ...) @fprintf(ptr noundef %207, ptr noundef @.str.28, ptr noundef %208, i64 noundef %213, ptr noundef %214, i64 noundef %219) #5
  %221 = load ptr, ptr %6, align 8, !tbaa !41
  %222 = call i32 (ptr, ptr, ...) @fprintf(ptr noundef %221, ptr noundef @.str.29) #5
  store i32 0, ptr %22, align 4
  br label %223

223:                                              ; preds = %205, %204
  call void @llvm.lifetime.end.p0(i64 8, ptr %21) #5
  %224 = load i32, ptr %22, align 4
  switch i32 %224, label %230 [
    i32 0, label %225
    i32 7, label %90
  ]

225:                                              ; preds = %223
  br label %226

226:                                              ; preds = %225, %131
  br label %90, !llvm.loop !65

227:                                              ; preds = %90
  %228 = load ptr, ptr %13, align 8, !tbaa !59
  call void @st__free_gen(ptr noundef %228)
  store ptr null, ptr %13, align 8, !tbaa !59
  %229 = load ptr, ptr %12, align 8, !tbaa !61
  call void @st__free_table(ptr noundef %229)
  call void @llvm.lifetime.end.p0(i64 8, ptr %20) #5
  call void @llvm.lifetime.end.p0(i64 8, ptr %19) #5
  call void @llvm.lifetime.end.p0(i64 8, ptr %18) #5
  call void @llvm.lifetime.end.p0(i64 8, ptr %17) #5
  call void @llvm.lifetime.end.p0(i64 8, ptr %16) #5
  call void @llvm.lifetime.end.p0(i64 8, ptr %15) #5
  call void @llvm.lifetime.end.p0(i64 8, ptr %14) #5
  call void @llvm.lifetime.end.p0(i64 8, ptr %13) #5
  call void @llvm.lifetime.end.p0(i64 8, ptr %12) #5
  call void @llvm.lifetime.end.p0(i64 4, ptr %11) #5
  ret void

230:                                              ; preds = %223
  unreachable
}