; Function Attrs: nounwind uwtable
define void @WriteDDintoBLIFfile(ptr noundef captures(none) %0, ptr noundef %1, ptr noundef %2, ptr noundef %3, ptr noundef readonly captures(none) %4) local_unnamed_addr #0 {
  %6 = alloca ptr, align 8
  %7 = alloca ptr, align 8
  call void @llvm.lifetime.start.p0(i64 8, ptr nonnull %6) #14
  %8 = tail call ptr @st__init_table(ptr noundef nonnull @st__ptrcmp, ptr noundef nonnull @st__ptrhash) #14
  %9 = ptrtoint ptr %1 to i64
  %10 = and i64 %9, -2
  %11 = inttoptr i64 %10 to ptr
  %12 = tail call i32 @cuddCollectNodes(ptr noundef %11, ptr noundef %8) #14
  %13 = tail call ptr @st__init_gen(ptr noundef %8) #14
  %14 = call i32 @st__gen(ptr noundef %13, ptr noundef nonnull %6, ptr noundef null) #14
  %.not78 = icmp eq i32 %14, 0
  br i1 %.not78, label %._crit_edge, label %.lr.ph

.lr.ph:                                           ; preds = %5, %.lr.ph
  %.06679 = phi i64 [ %18, %.lr.ph ], [ 0, %5 ]
  %15 = load ptr, ptr %6, align 8, !tbaa !3
  %16 = ptrtoint ptr %15 to i64
  %17 = xor i64 %10, %16
  %18 = or i64 %17, %.06679
  %19 = call i32 @st__gen(ptr noundef %13, ptr noundef nonnull %6, ptr noundef null) #14
  %.not = icmp eq i32 %19, 0
  br i1 %.not, label %._crit_edge, label %.lr.ph, !llvm.loop !55

._crit_edge:                                      ; preds = %.lr.ph, %5
  %.066.lcssa = phi i64 [ 0, %5 ], [ %18, %.lr.ph ]
  call void @st__free_gen(ptr noundef %13) #14
  br label %20

20:                                               ; preds = %20, %._crit_edge
  %.06580 = phi i32 [ 0, %._crit_edge ], [ %23, %20 ]
  %notmask = shl nsw i32 -1, %.06580
  %21 = xor i32 %notmask, -1
  %22 = zext nneg i32 %21 to i64
  %.not72 = icmp sgt i64 %.066.lcssa, %22
  %23 = add nuw nsw i32 %.06580, 4
  %24 = icmp samesign ult i32 %.06580, 60
  %or.cond = select i1 %.not72, i1 %24, i1 false
  br i1 %or.cond, label %20, label %25, !llvm.loop !56

25:                                               ; preds = %20
  %26 = trunc i64 %9 to i32
  %.lhs.trunc = and i32 %21, %26
  %27 = udiv i32 %.lhs.trunc, 40
  %.zext = zext nneg i32 %27 to i64
  %28 = call i32 (ptr, ptr, ...) @fprintf(ptr noundef %0, ptr noundef nonnull @.str.18, ptr noundef %3, i64 noundef %.zext, ptr noundef %2) #14
  %29 = and i64 %9, 1
  %.not73 = icmp eq i64 %29, 0
  %30 = select i1 %.not73, ptr @.str.21, ptr @.str.20
  %31 = call i32 (ptr, ptr, ...) @fprintf(ptr noundef %0, ptr noundef nonnull @.str.19, ptr noundef nonnull %30) #14
  %32 = call ptr @st__init_gen(ptr noundef %8) #14
  %33 = call i32 @st__gen(ptr noundef %32, ptr noundef nonnull %6, ptr noundef null) #14
  %.not7481 = icmp eq i32 %33, 0
  br i1 %.not7481, label %._crit_edge84, label %.lr.ph83

.lr.ph83:                                         ; preds = %25, %.backedge
  %34 = load ptr, ptr %6, align 8, !tbaa !3
  %35 = load i32, ptr %34, align 8, !tbaa !38
  %36 = icmp eq i32 %35, 2147483647
  br i1 %36, label %37, label %49

37:                                               ; preds = %.lr.ph83
  %38 = ptrtoint ptr %34 to i64
  %39 = and i64 %38, %22
  %40 = udiv i64 %39, 40
  %41 = call i32 (ptr, ptr, ...) @fprintf(ptr noundef %0, ptr noundef nonnull @.str.22, ptr noundef %3, i64 noundef %40) #14
  %42 = load ptr, ptr %6, align 8, !tbaa !3
  %43 = getelementptr inbounds nuw i8, ptr %42, i64 16
  %44 = load double, ptr %43, align 8, !tbaa !39
  %45 = fcmp oeq double %44, 0.000000e+00
  %46 = select i1 %45, ptr @.str.20, ptr @.str.21
  %47 = call i32 (ptr, ptr, ...) @fprintf(ptr noundef %0, ptr noundef nonnull @.str.23, ptr noundef nonnull %46) #14
  br label %.backedge

.backedge:                                        ; preds = %58, %.thread, %37, %93
  %48 = call i32 @st__gen(ptr noundef %32, ptr noundef nonnull %6, ptr noundef null) #14
  %.not74 = icmp eq i32 %48, 0
  br i1 %.not74, label %._crit_edge84, label %.lr.ph83, !llvm.loop !57

49:                                               ; preds = %.lr.ph83
  %50 = getelementptr inbounds nuw i8, ptr %34, i64 16
  %51 = getelementptr inbounds nuw i8, ptr %34, i64 24
  %52 = load ptr, ptr %51, align 8, !tbaa !39
  %53 = ptrtoint ptr %52 to i64
  %54 = and i64 %53, -2
  %55 = inttoptr i64 %54 to ptr
  %56 = load ptr, ptr %50, align 8, !tbaa !39
  %57 = icmp eq ptr %52, %55
  br i1 %57, label %58, label %73

58:                                               ; preds = %49
  %59 = zext i32 %35 to i64
  %60 = getelementptr inbounds nuw ptr, ptr %4, i64 %59
  %61 = load ptr, ptr %60, align 8, !tbaa !10
  %62 = and i64 %53, %22
  %63 = udiv i64 %62, 40
  %64 = ptrtoint ptr %56 to i64
  %65 = and i64 %64, %22
  %66 = udiv i64 %65, 40
  %67 = ptrtoint ptr %34 to i64
  %68 = and i64 %67, %22
  %69 = udiv i64 %68, 40
  %70 = call i32 (ptr, ptr, ...) @fprintf(ptr noundef %0, ptr noundef nonnull @.str.24, ptr noundef %61, ptr noundef %3, i64 noundef %63, ptr noundef %3, i64 noundef %66, ptr noundef %3, i64 noundef %69) #14
  %71 = call i64 @fwrite(ptr nonnull @.str.25, i64 6, i64 1, ptr %0)
  %72 = call i64 @fwrite(ptr nonnull @.str.26, i64 6, i64 1, ptr %0)
  br label %.backedge

73:                                               ; preds = %49
  call void @llvm.lifetime.start.p0(i64 8, ptr nonnull %7) #14
  %74 = zext i32 %35 to i64
  %75 = getelementptr inbounds nuw ptr, ptr %4, i64 %74
  %76 = load ptr, ptr %75, align 8, !tbaa !10
  %77 = and i64 %53, %22
  %78 = udiv i64 %77, 40
  %79 = ptrtoint ptr %56 to i64
  %80 = and i64 %79, %22
  %81 = udiv i64 %80, 40
  %82 = ptrtoint ptr %34 to i64
  %83 = and i64 %82, %22
  %84 = udiv i64 %83, 40
  %85 = call i32 (ptr, ptr, ...) @fprintf(ptr noundef %0, ptr noundef nonnull @.str.27, ptr noundef %76, ptr noundef %3, i64 noundef %78, ptr noundef %3, i64 noundef %81, ptr noundef %3, i64 noundef %84) #14
  %86 = call i64 @fwrite(ptr nonnull @.str.25, i64 6, i64 1, ptr %0)
  %87 = call i64 @fwrite(ptr nonnull @.str.26, i64 6, i64 1, ptr %0)
  %88 = call i32 @st__find(ptr noundef %8, ptr noundef %55, ptr noundef nonnull %7) #14
  %89 = load ptr, ptr %7, align 8, !tbaa !58
  %90 = load i32, ptr %89, align 4, !tbaa !19
  %.not75 = icmp eq i32 %90, 0
  br i1 %.not75, label %.thread, label %93, !llvm.loop !57

.thread:                                          ; preds = %73
  store i32 1, ptr %89, align 4, !tbaa !19
  %91 = call i32 (ptr, ptr, ...) @fprintf(ptr noundef %0, ptr noundef nonnull @.str.28, ptr noundef %3, i64 noundef %78, ptr noundef %3, i64 noundef %78) #14
  %92 = call i64 @fwrite(ptr nonnull @.str.29, i64 4, i64 1, ptr %0)
  call void @llvm.lifetime.end.p0(i64 8, ptr nonnull %7) #14
  br label %.backedge

93:                                               ; preds = %73
  call void @llvm.lifetime.end.p0(i64 8, ptr nonnull %7) #14
  br label %.backedge

._crit_edge84:                                    ; preds = %.backedge, %25
  call void @st__free_gen(ptr noundef %32) #14
  call void @st__free_table(ptr noundef %8) #14
  call void @llvm.lifetime.end.p0(i64 8, ptr nonnull %6) #14
  ret void
}